target datalayout = "e-m:e-p270:32:32-p271:32:32-p272:64:64-i64:64-i128:128-f80:128-n8:16:32:64-S128"
target triple = "x86_64-pc-linux-gnu"

%struct._packet_info = type { ptr, ptr, i32, i32, %struct.nstime_t, %struct.nstime_t, %struct.nstime_t, i8, ptr, ptr, ptr, ptr, %struct._address, %struct._address, %struct._address, %struct._address, %struct._address, %struct._address, i32, ptr, i8, [3 x i8], %struct.anon, i32, i32, i32, i32, ptr, i8, ptr, ptr, i16, i16, i32, i32, i16, i32, i32, ptr, ptr, ptr, i8, i8, i16, i16, i16, i32, i16, i16, ptr, ptr, ptr, ptr, ptr, i32, i32 }
%struct.nstime_t = type { i64, i32 }
%struct._address = type { i32, i32, ptr, ptr }
%struct.anon = type { i8, [3 x i8] }

@hf_s7comm_param_itemcount = internal global i32 0, align 4
@hf_s7comm_item_varspec = internal global i32 0, align 4
@hf_s7comm_item_varspec_length = internal global i32 0, align 4
@hf_s7comm_item_syntax_id = internal global i32 0, align 4
@hf_s7comm_data_item = internal global i32 0, align 4
@hf_s7comm_data_fillbyte = internal global i32 0, align 4
@hf_s7comm_pbc_arsend_ret = internal global i32 0, align 4
@hf_s7comm_pbc_arsend_unknown = internal global i32 0, align 4
@hf_s7comm_pbc_arsend_ar_id = internal global i32 0, align 4
@ett_s7comm_data_item = internal global i32 0, align 4
@.str.2353 = private unnamed_addr constant [6 x i8] c" [%d]\00", align 1
@.str.2430 = private unnamed_addr constant [7 x i8] c"%s0x%X\00", align 1
@.str.2431 = private unnamed_addr constant [8 x i8] c" AR_ID=\00", align 1
@.str.2432 = private unnamed_addr constant [2 x i8] c",\00", align 1
@.str.2433 = private unnamed_addr constant [18 x i8] c" [%d]: AR_ID=0x%X\00", align 1

; Function Attrs: null_pointer_is_valid sspstrong uwtable
define internal i32 @s7comm_decode_message_service_ar_send_args(ptr noundef %0, ptr noundef %1, ptr noundef %2, i8 noundef zeroext %3, i32 noundef %4) #0 {
  %6 = alloca ptr, align 8
  %7 = alloca ptr, align 8
  %8 = alloca ptr, align 8
  %9 = alloca i8, align 1
  %10 = alloca i32, align 4
  %11 = alloca i8, align 1
  %12 = alloca i8, align 1
  %13 = alloca i32, align 4
  %14 = alloca ptr, align 8
  %15 = alloca ptr, align 8
  store ptr %0, ptr %6, align 8
  store ptr %1, ptr %7, align 8
  store ptr %2, ptr %8, align 8
  store i8 %3, ptr %9, align 1
  store i32 %4, ptr %10, align 4
  call void @llvm.lifetime.start.p0(i64 1, ptr %11) #8
  call void @llvm.lifetime.start.p0(i64 1, ptr %12) #8
  call void @llvm.lifetime.start.p0(i64 4, ptr %13) #8
  call void @llvm.lifetime.start.p0(i64 8, ptr %14) #8
  store ptr null, ptr %14, align 8
  call void @llvm.lifetime.start.p0(i64 8, ptr %15) #8
  store ptr null, ptr %15, align 8
  %16 = load ptr, ptr %6, align 8
  %17 = load i32, ptr %10, align 4
  %18 = call zeroext i8 @tvb_get_uint8(ptr noundef %16, i32 noundef %17)
  store i8 %18, ptr %11, align 1
  %19 = load ptr, ptr %8, align 8
  %20 = load i32, ptr @hf_s7comm_param_itemcount, align 4
  %21 = load ptr, ptr %6, align 8
  %22 = load i32, ptr %10, align 4
  %23 = load i8, ptr %11, align 1
  %24 = zext i8 %23 to i32
  %25 = call ptr @proto_tree_add_uint(ptr noundef %19, i32 noundef %20, ptr noundef %21, i32 noundef %22, i32 noundef 1, i32 noundef %24)
  %26 = load i32, ptr %10, align 4
  %27 = add i32 %26, 1
  store i32 %27, ptr %10, align 4
  store i8 0, ptr %12, align 1
  br label %28

28:                                               ; preds = %121, %5
  %29 = load i8, ptr %12, align 1
  %30 = zext i8 %29 to i32
  %31 = load i8, ptr %11, align 1
  %32 = zext i8 %31 to i32
  %33 = icmp slt i32 %30, %32
  br i1 %33, label %34, label %124

34:                                               ; preds = %28
  %35 = load i8, ptr %9, align 1
  %36 = zext i8 %35 to i32
  %37 = icmp eq i32 %36, 1
  br i1 %37, label %38, label %95

38:                                               ; preds = %34
  %39 = load ptr, ptr %8, align 8
  %40 = load i32, ptr @hf_s7comm_data_item, align 4
  %41 = load ptr, ptr %6, align 8
  %42 = load i32, ptr %10, align 4
  %43 = call ptr @proto_tree_add_item(ptr noundef %39, i32 noundef %40, ptr noundef %41, i32 noundef %42, i32 noundef 8, i32 noundef 0)
  store ptr %43, ptr %14, align 8
  %44 = load ptr, ptr %14, align 8
  %45 = load i32, ptr @ett_s7comm_data_item, align 4
  %46 = call ptr @proto_item_add_subtree(ptr noundef %44, i32 noundef %45)
  store ptr %46, ptr %15, align 8
  %47 = load ptr, ptr %15, align 8
  %48 = load i32, ptr @hf_s7comm_item_varspec, align 4
  %49 = load ptr, ptr %6, align 8
  %50 = load i32, ptr %10, align 4
  %51 = call ptr @proto_tree_add_item(ptr noundef %47, i32 noundef %48, ptr noundef %49, i32 noundef %50, i32 noundef 1, i32 noundef 0)
  %52 = load i32, ptr %10, align 4
  %53 = add i32 %52, 1
  store i32 %53, ptr %10, align 4
  %54 = load ptr, ptr %15, align 8
  %55 = load i32, ptr @hf_s7comm_item_varspec_length, align 4
  %56 = load ptr, ptr %6, align 8
  %57 = load i32, ptr %10, align 4
  %58 = call ptr @proto_tree_add_item(ptr noundef %54, i32 noundef %55, ptr noundef %56, i32 noundef %57, i32 noundef 1, i32 noundef 0)
  %59 = load i32, ptr %10, align 4
  %60 = add i32 %59, 1
  store i32 %60, ptr %10, align 4
  %61 = load ptr, ptr %15, align 8
  %62 = load i32, ptr @hf_s7comm_item_syntax_id, align 4
  %63 = load ptr, ptr %6, align 8
  %64 = load i32, ptr %10, align 4
  %65 = call ptr @proto_tree_add_item(ptr noundef %61, i32 noundef %62, ptr noundef %63, i32 noundef %64, i32 noundef 1, i32 noundef 0)
  %66 = load i32, ptr %10, align 4
  %67 = add i32 %66, 1
  store i32 %67, ptr %10, align 4
  %68 = load ptr, ptr %15, align 8
  %69 = load i32, ptr @hf_s7comm_pbc_arsend_unknown, align 4
  %70 = load ptr, ptr %6, align 8
  %71 = load i32, ptr %10, align 4
  %72 = call ptr @proto_tree_add_item(ptr noundef %68, i32 noundef %69, ptr noundef %70, i32 noundef %71, i32 noundef 1, i32 noundef 0)
  %73 = load i32, ptr %10, align 4
  %74 = add i32 %73, 1
  store i32 %74, ptr %10, align 4
  %75 = load ptr, ptr %15, align 8
  %76 = load i32, ptr @hf_s7comm_pbc_arsend_ar_id, align 4
  %77 = load ptr, ptr %6, align 8
  %78 = load i32, ptr %10, align 4
  %79 = call ptr @proto_tree_add_item_ret_uint(ptr noundef %75, i32 noundef %76, ptr noundef %77, i32 noundef %78, i32 noundef 4, i32 noundef 0, ptr noundef %13)
  %80 = load ptr, ptr %7, align 8
  %81 = getelementptr inbounds nuw %struct._packet_info, ptr %80, i32 0, i32 1
  %82 = load ptr, ptr %81, align 8
  %83 = load i8, ptr %12, align 1
  %84 = zext i8 %83 to i32
  %85 = icmp eq i32 %84, 0
  %86 = select i1 %85, ptr @.str.2431, ptr @.str.2432
  %87 = load i32, ptr %13, align 4
  call void (ptr, i32, ptr, ...) @col_append_fstr(ptr noundef %82, i32 noundef 25, ptr noundef @.str.2430, ptr noundef %86, i32 noundef %87)
  %88 = load ptr, ptr %14, align 8
  %89 = load i8, ptr %12, align 1
  %90 = zext i8 %89 to i32
  %91 = add i32 %90, 1
  %92 = load i32, ptr %13, align 4
  call void (ptr, ptr, ...) @proto_item_append_text(ptr noundef %88, ptr noundef @.str.2433, i32 noundef %91, i32 noundef %92)
  %93 = load i32, ptr %10, align 4
  %94 = add i32 %93, 4
  store i32 %94, ptr %10, align 4
  br label %120

95:                                               ; preds = %34
  %96 = load i8, ptr %9, align 1
  %97 = zext i8 %96 to i32
  %98 = icmp eq i32 %97, 2
  br i1 %98, label %99, label %119

99:                                               ; preds = %95
  %100 = load ptr, ptr %8, align 8
  %101 = load i32, ptr @hf_s7comm_data_item, align 4
  %102 = load ptr, ptr %6, align 8
  %103 = load i32, ptr %10, align 4
  %104 = call ptr @proto_tree_add_item(ptr noundef %100, i32 noundef %101, ptr noundef %102, i32 noundef %103, i32 noundef 1, i32 noundef 0)
  store ptr %104, ptr %14, align 8
  %105 = load ptr, ptr %14, align 8
  %106 = load i32, ptr @ett_s7comm_data_item, align 4
  %107 = call ptr @proto_item_add_subtree(ptr noundef %105, i32 noundef %106)
  store ptr %107, ptr %15, align 8
  %108 = load ptr, ptr %14, align 8
  %109 = load i8, ptr %12, align 1
  %110 = zext i8 %109 to i32
  %111 = add i32 %110, 1
  call void (ptr, ptr, ...) @proto_item_append_text(ptr noundef %108, ptr noundef @.str.2353, i32 noundef %111)
  %112 = load ptr, ptr %15, align 8
  %113 = load i32, ptr @hf_s7comm_pbc_arsend_ret, align 4
  %114 = load ptr, ptr %6, align 8
  %115 = load i32, ptr %10, align 4
  %116 = call ptr @proto_tree_add_item(ptr noundef %112, i32 noundef %113, ptr noundef %114, i32 noundef %115, i32 noundef 1, i32 noundef 0)
  %117 = load i32, ptr %10, align 4
  %118 = add i32 %117, 1
  store i32 %118, ptr %10, align 4
  br label %119

119:                                              ; preds = %99, %95
  br label %120

120:                                              ; preds = %119, %38
  br label %121

121:                                              ; preds = %120
  %122 = load i8, ptr %12, align 1
  %123 = add i8 %122, 1
  store i8 %123, ptr %12, align 1
  br label %28, !llvm.loop !37

124:                                              ; preds = %28
  %125 = load i8, ptr %9, align 1
  %126 = zext i8 %125 to i32
  %127 = icmp eq i32 %126, 2
  br i1 %127, label %128, label %141

128:                                              ; preds = %124
  %129 = load i8, ptr %11, align 1
  %130 = zext i8 %129 to i32
  %131 = srem i32 %130, 2
  %132 = icmp ne i32 %131, 0
  br i1 %132, label %133, label %141

133:                                              ; preds = %128
  %134 = load ptr, ptr %8, align 8
  %135 = load i32, ptr @hf_s7comm_data_fillbyte, align 4
  %136 = load ptr, ptr %6, align 8
  %137 = load i32, ptr %10, align 4
  %138 = call ptr @proto_tree_add_item(ptr noundef %134, i32 noundef %135, ptr noundef %136, i32 noundef %137, i32 noundef 1, i32 noundef 0)
  %139 = load i32, ptr %10, align 4
  %140 = add i32 %139, 1
  store i32 %140, ptr %10, align 4
  br label %141

141:                                              ; preds = %133, %128, %124
  %142 = load i32, ptr %10, align 4
  call void @llvm.lifetime.end.p0(i64 8, ptr %15) #8
  call void @llvm.lifetime.end.p0(i64 8, ptr %14) #8
  call void @llvm.lifetime.end.p0(i64 4, ptr %13) #8
  call void @llvm.lifetime.end.p0(i64 1, ptr %12) #8
  call void @llvm.lifetime.end.p0(i64 1, ptr %11) #8
  ret i32 %142
}