; Function Attrs: null_pointer_is_valid sspstrong uwtable
define internal fastcc noundef i32 @s7comm_decode_message_service_ar_send_args(ptr noundef %0, ptr noundef readonly captures(none) %1, ptr noundef %2, i8 noundef zeroext range(i8 0, 4) %3, i32 noundef %4) unnamed_addr #0 {
  %6 = alloca i32, align 4
  call void @llvm.lifetime.start.p0(i64 4, ptr nonnull %6) #8
  %7 = tail call zeroext i8 @tvb_get_uint8(ptr noundef %0, i32 noundef %4)
  %8 = load i32, ptr @hf_s7comm_param_itemcount, align 4
  %9 = zext i8 %7 to i32
  %10 = tail call ptr @proto_tree_add_uint(ptr noundef %2, i32 noundef %8, ptr noundef %0, i32 noundef %4, i32 noundef 1, i32 noundef %9)
  %11 = add i32 %4, 1
  %.not68 = icmp eq i8 %7, 0
  br i1 %.not68, label %._crit_edge.thread, label %.lr.ph

.lr.ph:                                           ; preds = %5
  %12 = getelementptr inbounds nuw i8, ptr %1, i64 8
  switch i8 %3, label %._crit_edge [
    i8 1, label %.lr.ph.split.us
    i8 2, label %.lr.ph.split.us62
  ]

.lr.ph.split.us:                                  ; preds = %.lr.ph, %.lr.ph.split.us
  %indvars.iv73 = phi i32 [ %35, %.lr.ph.split.us ], [ 0, %.lr.ph ]
  %.05660.us = phi i32 [ %37, %.lr.ph.split.us ], [ %11, %.lr.ph ]
  %13 = load i32, ptr @hf_s7comm_data_item, align 4
  %14 = call ptr @proto_tree_add_item(ptr noundef %2, i32 noundef %13, ptr noundef %0, i32 noundef %.05660.us, i32 noundef 8, i32 noundef 0)
  %15 = load i32, ptr @ett_s7comm_data_item, align 4
  %16 = call ptr @proto_item_add_subtree(ptr noundef %14, i32 noundef %15)
  %17 = load i32, ptr @hf_s7comm_item_varspec, align 4
  %18 = call ptr @proto_tree_add_item(ptr noundef %16, i32 noundef %17, ptr noundef %0, i32 noundef %.05660.us, i32 noundef 1, i32 noundef 0)
  %19 = add i32 %.05660.us, 1
  %20 = load i32, ptr @hf_s7comm_item_varspec_length, align 4
  %21 = call ptr @proto_tree_add_item(ptr noundef %16, i32 noundef %20, ptr noundef %0, i32 noundef %19, i32 noundef 1, i32 noundef 0)
  %22 = add i32 %.05660.us, 2
  %23 = load i32, ptr @hf_s7comm_item_syntax_id, align 4
  %24 = call ptr @proto_tree_add_item(ptr noundef %16, i32 noundef %23, ptr noundef %0, i32 noundef %22, i32 noundef 1, i32 noundef 0)
  %25 = add i32 %.05660.us, 3
  %26 = load i32, ptr @hf_s7comm_pbc_arsend_unknown, align 4
  %27 = call ptr @proto_tree_add_item(ptr noundef %16, i32 noundef %26, ptr noundef %0, i32 noundef %25, i32 noundef 1, i32 noundef 0)
  %28 = add i32 %.05660.us, 4
  %29 = load i32, ptr @hf_s7comm_pbc_arsend_ar_id, align 4
  %30 = call ptr @proto_tree_add_item_ret_uint(ptr noundef %16, i32 noundef %29, ptr noundef %0, i32 noundef %28, i32 noundef 4, i32 noundef 0, ptr noundef nonnull %6)
  %31 = load ptr, ptr %12, align 8
  %32 = icmp eq i32 %indvars.iv73, 0
  %33 = select i1 %32, ptr @.str.2431, ptr @.str.2432
  %34 = load i32, ptr %6, align 4
  call void (ptr, i32, ptr, ...) @col_append_fstr(ptr noundef %31, i32 noundef 25, ptr noundef nonnull @.str.2430, ptr noundef nonnull %33, i32 noundef %34)
  %35 = add nuw nsw i32 %indvars.iv73, 1
  %36 = load i32, ptr %6, align 4
  call void (ptr, ptr, ...) @proto_item_append_text(ptr noundef %14, ptr noundef nonnull @.str.2433, i32 noundef %35, i32 noundef %36)
  %37 = add i32 %.05660.us, 8
  %exitcond77.not = icmp eq i32 %35, %9
  br i1 %exitcond77.not, label %._crit_edge, label %.lr.ph.split.us, !llvm.loop !37

.lr.ph.split.us62:                                ; preds = %.lr.ph, %.lr.ph.split.us62
  %indvars.iv = phi i32 [ %42, %.lr.ph.split.us62 ], [ 0, %.lr.ph ]
  %.05660.us64 = phi i32 [ %45, %.lr.ph.split.us62 ], [ %11, %.lr.ph ]
  %38 = load i32, ptr @hf_s7comm_data_item, align 4
  %39 = tail call ptr @proto_tree_add_item(ptr noundef %2, i32 noundef %38, ptr noundef %0, i32 noundef %.05660.us64, i32 noundef 1, i32 noundef 0)
  %40 = load i32, ptr @ett_s7comm_data_item, align 4
  %41 = tail call ptr @proto_item_add_subtree(ptr noundef %39, i32 noundef %40)
  %42 = add nuw nsw i32 %indvars.iv, 1
  tail call void (ptr, ptr, ...) @proto_item_append_text(ptr noundef %39, ptr noundef nonnull @.str.2353, i32 noundef %42)
  %43 = load i32, ptr @hf_s7comm_pbc_arsend_ret, align 4
  %44 = tail call ptr @proto_tree_add_item(ptr noundef %41, i32 noundef %43, ptr noundef %0, i32 noundef %.05660.us64, i32 noundef 1, i32 noundef 0)
  %45 = add i32 %.05660.us64, 1
  %exitcond.not = icmp eq i32 %42, %9
  br i1 %exitcond.not, label %._crit_edge, label %.lr.ph.split.us62, !llvm.loop !37

._crit_edge:                                      ; preds = %.lr.ph.split.us62, %.lr.ph.split.us, %.lr.ph
  %.056.lcssa = phi i32 [ %11, %.lr.ph ], [ %37, %.lr.ph.split.us ], [ %45, %.lr.ph.split.us62 ]
  %46 = icmp ne i8 %3, 2
  %47 = and i32 %9, 1
  %.not = icmp eq i32 %47, 0
  %or.cond = or i1 %46, %.not
  br i1 %or.cond, label %._crit_edge.thread, label %48

48:                                               ; preds = %._crit_edge
  %49 = load i32, ptr @hf_s7comm_data_fillbyte, align 4
  %50 = call ptr @proto_tree_add_item(ptr noundef %2, i32 noundef %49, ptr noundef %0, i32 noundef %.056.lcssa, i32 noundef 1, i32 noundef 0)
  %51 = add i32 %.056.lcssa, 1
  br label %._crit_edge.thread

._crit_edge.thread:                               ; preds = %5, %48, %._crit_edge
  %.2 = phi i32 [ %51, %48 ], [ %.056.lcssa, %._crit_edge ], [ %11, %5 ]
  call void @llvm.lifetime.end.p0(i64 4, ptr nonnull %6) #8
  ret i32 %.2
}